; ModuleID = '9/96.c'
source_filename = "9/96.c"
target datalayout = "e-m:e-p270:32:32-p271:32:32-p272:64:64-i64:64-f80:128-n8:16:32:64-S128"
target triple = "x86_64-pc-linux-gnu"

@.str = private unnamed_addr constant [3 x i8] c"%d\00", align 1
@.str.1 = private unnamed_addr constant [6 x i8] c"%s %d\00", align 1
@.str.2 = private unnamed_addr constant [4 x i8] c"%s\0A\00", align 1

; Function Attrs: noinline nounwind uwtable
define dso_local void @main() #0 {
  %1 = alloca i32, align 4
  %2 = alloca i32, align 4
  %3 = alloca i32, align 4
  %4 = alloca i32, align 4
  %5 = alloca i32, align 4
  %6 = alloca [101 x i32], align 16
  %7 = alloca [101 x i32], align 16
  %8 = alloca [101 x [10 x i8]], align 16
  %9 = alloca [101 x [10 x i8]], align 16
  %10 = alloca [101 x [10 x i8]], align 16
  store i32 0, i32* %3, align 4
  %11 = call i32 (i8*, ...) @__isoc99_scanf(i8* getelementptr inbounds ([3 x i8], [3 x i8]* @.str, i64 0, i64 0), i32* %1)
  store i32 0, i32* %2, align 4
  br label %12

12:                                               ; preds = %25, %0
  %13 = load i32, i32* %2, align 4
  %14 = load i32, i32* %1, align 4
  %15 = icmp slt i32 %13, %14
  br i1 %15, label %16, label %28

16:                                               ; preds = %12
  %17 = load i32, i32* %2, align 4
  %18 = sext i32 %17 to i64
  %19 = getelementptr inbounds [101 x [10 x i8]], [101 x [10 x i8]]* %8, i64 0, i64 %18
  %20 = getelementptr inbounds [10 x i8], [10 x i8]* %19, i64 0, i64 0
  %21 = load i32, i32* %2, align 4
  %22 = sext i32 %21 to i64
  %23 = getelementptr inbounds [101 x i32], [101 x i32]* %6, i64 0, i64 %22
  %24 = call i32 (i8*, ...) @__isoc99_scanf(i8* getelementptr inbounds ([6 x i8], [6 x i8]* @.str.1, i64 0, i64 0), i8* %20, i32* %23)
  br label %25

25:                                               ; preds = %16
  %26 = load i32, i32* %2, align 4
  %27 = add nsw i32 %26, 1
  store i32 %27, i32* %2, align 4
  br label %12

28:                                               ; preds = %12
  %29 = load i32, i32* %1, align 4
  %30 = sub nsw i32 %29, 1
  store i32 %30, i32* %4, align 4
  store i32 0, i32* %5, align 4
  %31 = load i32, i32* %1, align 4
  %32 = sub nsw i32 %31, 1
  store i32 %32, i32* %2, align 4
  br label %33

33:                                               ; preds = %55, %28
  %34 = load i32, i32* %2, align 4
  %35 = icmp sge i32 %34, 0
  br i1 %35, label %36, label %58

36:                                               ; preds = %33
  %37 = load i32, i32* %2, align 4
  %38 = sext i32 %37 to i64
  %39 = getelementptr inbounds [101 x i32], [101 x i32]* %6, i64 0, i64 %38
  %40 = load i32, i32* %39, align 4
  %41 = icmp slt i32 %40, 60
  br i1 %41, label %42, label %54

42:                                               ; preds = %36
  %43 = load i32, i32* %4, align 4
  %44 = sext i32 %43 to i64
  %45 = getelementptr inbounds [101 x [10 x i8]], [101 x [10 x i8]]* %9, i64 0, i64 %44
  %46 = getelementptr inbounds [10 x i8], [10 x i8]* %45, i64 0, i64 0
  %47 = load i32, i32* %2, align 4
  %48 = sext i32 %47 to i64
  %49 = getelementptr inbounds [101 x [10 x i8]], [101 x [10 x i8]]* %8, i64 0, i64 %48
  %50 = getelementptr inbounds [10 x i8], [10 x i8]* %49, i64 0, i64 0
  %51 = call i8* @strcpy(i8* %46, i8* %50) #3
  %52 = load i32, i32* %4, align 4
  %53 = sub nsw i32 %52, 1
  store i32 %53, i32* %4, align 4
  br label %54

54:                                               ; preds = %42, %36
  br label %55

55:                                               ; preds = %54
  %56 = load i32, i32* %2, align 4
  %57 = add nsw i32 %56, -1
  store i32 %57, i32* %2, align 4
  br label %33

58:                                               ; preds = %33
  store i32 0, i32* %2, align 4
  br label %59

59:                                               ; preds = %91, %58
  %60 = load i32, i32* %2, align 4
  %61 = load i32, i32* %1, align 4
  %62 = icmp slt i32 %60, %61
  br i1 %62, label %63, label %94

63:                                               ; preds = %59
  %64 = load i32, i32* %2, align 4
  %65 = sext i32 %64 to i64
  %66 = getelementptr inbounds [101 x i32], [101 x i32]* %6, i64 0, i64 %65
  %67 = load i32, i32* %66, align 4
  %68 = icmp sge i32 %67, 60
  br i1 %68, label %69, label %90

69:                                               ; preds = %63
  %70 = load i32, i32* %5, align 4
  %71 = sext i32 %70 to i64
  %72 = getelementptr inbounds [101 x [10 x i8]], [101 x [10 x i8]]* %9, i64 0, i64 %71
  %73 = getelementptr inbounds [10 x i8], [10 x i8]* %72, i64 0, i64 0
  %74 = load i32, i32* %2, align 4
  %75 = sext i32 %74 to i64
  %76 = getelementptr inbounds [101 x [10 x i8]], [101 x [10 x i8]]* %8, i64 0, i64 %75
  %77 = getelementptr inbounds [10 x i8], [10 x i8]* %76, i64 0, i64 0
  %78 = call i8* @strcpy(i8* %73, i8* %77) #3
  %79 = load i32, i32* %2, align 4
  %80 = sext i32 %79 to i64
  %81 = getelementptr inbounds [101 x i32], [101 x i32]* %6, i64 0, i64 %80
  %82 = load i32, i32* %81, align 4
  %83 = load i32, i32* %5, align 4
  %84 = sext i32 %83 to i64
  %85 = getelementptr inbounds [101 x i32], [101 x i32]* %7, i64 0, i64 %84
  store i32 %82, i32* %85, align 4
  %86 = load i32, i32* %3, align 4
  %87 = add nsw i32 %86, 1
  store i32 %87, i32* %3, align 4
  %88 = load i32, i32* %5, align 4
  %89 = add nsw i32 %88, 1
  store i32 %89, i32* %5, align 4
  br label %90

90:                                               ; preds = %69, %63
  br label %91

91:                                               ; preds = %90
  %92 = load i32, i32* %2, align 4
  %93 = add nsw i32 %92, 1
  store i32 %93, i32* %2, align 4
  br label %59

94:                                               ; preds = %59
  store i32 0, i32* %2, align 4
  br label %95

95:                                               ; preds = %166, %94
  %96 = load i32, i32* %2, align 4
  %97 = load i32, i32* %3, align 4
  %98 = icmp slt i32 %96, %97
  br i1 %98, label %99, label %169

99:                                               ; preds = %95
  store i32 0, i32* %5, align 4
  br label %100

100:                                              ; preds = %162, %99
  %101 = load i32, i32* %5, align 4
  %102 = load i32, i32* %3, align 4
  %103 = sub nsw i32 %102, 1
  %104 = icmp slt i32 %101, %103
  br i1 %104, label %105, label %165

105:                                              ; preds = %100
  %106 = load i32, i32* %5, align 4
  %107 = sext i32 %106 to i64
  %108 = getelementptr inbounds [101 x i32], [101 x i32]* %7, i64 0, i64 %107
  %109 = load i32, i32* %108, align 4
  %110 = load i32, i32* %5, align 4
  %111 = add nsw i32 %110, 1
  %112 = sext i32 %111 to i64
  %113 = getelementptr inbounds [101 x i32], [101 x i32]* %7, i64 0, i64 %112
  %114 = load i32, i32* %113, align 4
  %115 = icmp slt i32 %109, %114
  br i1 %115, label %116, label %161

116:                                              ; preds = %105
  %117 = load i32, i32* %5, align 4
  %118 = sext i32 %117 to i64
  %119 = getelementptr inbounds [101 x i32], [101 x i32]* %7, i64 0, i64 %118
  %120 = load i32, i32* %119, align 4
  %121 = getelementptr inbounds [101 x i32], [101 x i32]* %7, i64 0, i64 100
  store i32 %120, i32* %121, align 16
  %122 = load i32, i32* %5, align 4
  %123 = add nsw i32 %122, 1
  %124 = sext i32 %123 to i64
  %125 = getelementptr inbounds [101 x i32], [101 x i32]* %7, i64 0, i64 %124
  %126 = load i32, i32* %125, align 4
  %127 = load i32, i32* %5, align 4
  %128 = sext i32 %127 to i64
  %129 = getelementptr inbounds [101 x i32], [101 x i32]* %7, i64 0, i64 %128
  store i32 %126, i32* %129, align 4
  %130 = getelementptr inbounds [101 x i32], [101 x i32]* %7, i64 0, i64 100
  %131 = load i32, i32* %130, align 16
  %132 = load i32, i32* %5, align 4
  %133 = add nsw i32 %132, 1
  %134 = sext i32 %133 to i64
  %135 = getelementptr inbounds [101 x i32], [101 x i32]* %7, i64 0, i64 %134
  store i32 %131, i32* %135, align 4
  %136 = getelementptr inbounds [101 x [10 x i8]], [101 x [10 x i8]]* %9, i64 0, i64 100
  %137 = getelementptr inbounds [10 x i8], [10 x i8]* %136, i64 0, i64 0
  %138 = load i32, i32* %5, align 4
  %139 = sext i32 %138 to i64
  %140 = getelementptr inbounds [101 x [10 x i8]], [101 x [10 x i8]]* %9, i64 0, i64 %139
  %141 = getelementptr inbounds [10 x i8], [10 x i8]* %140, i64 0, i64 0
  %142 = call i8* @strcpy(i8* %137, i8* %141) #3
  %143 = load i32, i32* %5, align 4
  %144 = sext i32 %143 to i64
  %145 = getelementptr inbounds [101 x [10 x i8]], [101 x [10 x i8]]* %9, i64 0, i64 %144
  %146 = getelementptr inbounds [10 x i8], [10 x i8]* %145, i64 0, i64 0
  %147 = load i32, i32* %5, align 4
  %148 = add nsw i32 %147, 1
  %149 = sext i32 %148 to i64
  %150 = getelementptr inbounds [101 x [10 x i8]], [101 x [10 x i8]]* %9, i64 0, i64 %149
  %151 = getelementptr inbounds [10 x i8], [10 x i8]* %150, i64 0, i64 0
  %152 = call i8* @strcpy(i8* %146, i8* %151) #3
  %153 = load i32, i32* %5, align 4
  %154 = add nsw i32 1, %153
  %155 = sext i32 %154 to i64
  %156 = getelementptr inbounds [101 x [10 x i8]], [101 x [10 x i8]]* %9, i64 0, i64 %155
  %157 = getelementptr inbounds [10 x i8], [10 x i8]* %156, i64 0, i64 0
  %158 = getelementptr inbounds [101 x [10 x i8]], [101 x [10 x i8]]* %9, i64 0, i64 100
  %159 = getelementptr inbounds [10 x i8], [10 x i8]* %158, i64 0, i64 0
  %160 = call i8* @strcpy(i8* %157, i8* %159) #3
  br label %161

161:                                              ; preds = %116, %105
  br label %162

162:                                              ; preds = %161
  %163 = load i32, i32* %5, align 4
  %164 = add nsw i32 %163, 1
  store i32 %164, i32* %5, align 4
  br label %100

165:                                              ; preds = %100
  br label %166

166:                                              ; preds = %165
  %167 = load i32, i32* %2, align 4
  %168 = add nsw i32 %167, 1
  store i32 %168, i32* %2, align 4
  br label %95

169:                                              ; preds = %95
  store i32 0, i32* %2, align 4
  br label %170

170:                                              ; preds = %180, %169
  %171 = load i32, i32* %2, align 4
  %172 = load i32, i32* %1, align 4
  %173 = icmp slt i32 %171, %172
  br i1 %173, label %174, label %183

174:                                              ; preds = %170
  %175 = load i32, i32* %2, align 4
  %176 = sext i32 %175 to i64
  %177 = getelementptr inbounds [101 x [10 x i8]], [101 x [10 x i8]]* %9, i64 0, i64 %176
  %178 = getelementptr inbounds [10 x i8], [10 x i8]* %177, i64 0, i64 0
  %179 = call i32 (i8*, ...) @printf(i8* getelementptr inbounds ([4 x i8], [4 x i8]* @.str.2, i64 0, i64 0), i8* %178)
  br label %180

180:                                              ; preds = %174
  %181 = load i32, i32* %2, align 4
  %182 = add nsw i32 %181, 1
  store i32 %182, i32* %2, align 4
  br label %170

183:                                              ; preds = %170
  ret void
}

declare dso_local i32 @__isoc99_scanf(i8*, ...) #1

; Function Attrs: nounwind
declare dso_local i8* @strcpy(i8*, i8*) #2

declare dso_local i32 @printf(i8*, ...) #1


!llvm.module.flags = !{!0}
!llvm.ident = !{!1}

!0 = !{i32 1, !"wchar_size", i32 4}
!1 = !{!"clang version 10.0.0-4ubuntu1 "}
